(dp0
S'hy'
p1
(lp2
F0.044051212518463674
aF-0.4009678976274088
aF-0.8533389205645923
aF-1.0954885401726229
aF-1.4308230594825988
aF0.7597039601365768
aF0.2289054282707207
aF-0.34172825692833486
aF-0.8954866421098074
aF-1.4403710248034152
aF1.409073195383818
aF1.078014264252523
aF0.5427405491798492
aF-0.21532352145537312
aF-0.9306138573800884
aF2.23596549633508
aF1.5156687515359573
aF0.46655353403786975
aF-0.07278175194492927
aF-0.6037529191816876
asS'co'
p3
(lp4
F-1.0554676566916195
aF-1.0512440158435055
aF-0.9299178965902255
aF-0.7184725070520436
aF-0.4309559247884295
aF-0.9667298780009494
aF-0.9353879429827479
aF-0.6876314984527302
aF-0.43937880936642
aF-0.042150593206608994
aF-0.38682942174213003
aF-0.3395080393287637
aF-0.13449080174638012
aF-0.04877329132108161
aF0.08383767250128023
aF1.3284608935256368
aF1.3421112434700666
aF1.5810001734894241
aF1.7766937421969098
aF2.054834551930318
asS'power'
p5
(lp6
F1.4495026379838503
aF1.4495026379838503
aF1.4495026379838503
aF1.4495026379838503
aF0.5275031608001058
aF0.5275031608001058
aF0.5275031608001058
aF0.5275031608001058
aF0.5275031608001058
aF-0.3865340367956935
aF-0.3865340367956935
aF-0.3865340367956935
aF-0.3865340367956935
aF-0.3865340367956935
aF-1.3005712343914928
aF-1.3005712343914928
aF-1.3005712343914928
aF-1.3005712343914928
aF-1.3005712343914928
asS'egt'
p7
(lp8
F1.4591128735147787
aF1.4192282391590216
aF1.3527538485660933
aF1.3128692142103362
aF1.153330676787308
aF0.7145996988739804
aF0.6614201863996376
aF0.5550611614509522
aF0.42211238026509523
aF0.3556379896721669
aF-0.6414778692217593
aF-0.6680676254589306
aF-0.7079522598146877
aF-0.7611317722890302
aF-0.7744266504076159
aF-1.0802088471350868
aF-1.106798603372258
aF-1.1865678720837722
aF-1.2264525064395293
aF-1.2530422626767006
asS'bte'
p9
(lp10
F1.1411984615246322
aF1.1505850341694681
aF1.1354093675330215
aF1.0544957372064432
aF0.9735767219477779
aF0.7135880984785519
aF0.7462068984351975
aF0.688077676819376
aF0.6433026328614541
aF0.58415765922924
aF-0.28021847744986045
aF-0.2807060749624776
aF-0.2536203360697616
aF-0.23991834650842664
aF-0.23060812159710534
aF-1.442626763040469
aF-1.4855975084056088
aF-1.4974539535876858
aF-1.542035314252492
aF-1.5778133923312743
asS'rso'
p11
(lp12
F-0.044051212503663825
aF0.4009678976439553
aF0.853338920582914
aF1.0954885401918926
aF1.4308230595031868
aF-0.7597039601245847
aF-0.22890542825664575
aF0.34172825694464853
aF0.8954866421282939
aF1.440371024824038
aF-1.409073195374375
aF-1.0780142643353594
aF-0.5427405491670064
aF0.21532352147118927
aF0.9306138572302692
aF-2.2359654963288804
aF-1.5156687515269318
aF-0.4665535340247266
aF0.0727817519601885
aF0.6037529191615979
asS'nox'
p13
(lp14
F0.7710756307347414
aF0.9711319156593268
aF0.7315078415479466
aF0.204001658865031
aF-0.10533984069008089
aF-0.4619924510330734
aF-0.3728706488213009
aF-0.7561521867186597
aF-1.471292706726317
aF-2.4192309815731985
aF0.30426430482343175
aF0.37805749194862015
aF-0.10772494184971354
aF-0.5648992228845401
aF-1.359758644169407
aF1.605287572870256
aF1.6542801153611797
aF1.0113180972909595
aF0.29527068009550694
aF-0.3069336847307091
asS'hcg'
p15
(lp16
F-1.3201146692292676
aF-1.1451056574214533
aF-0.9112160184891074
aF-0.6170995851522667
aF-0.20707138661907235
aF-1.015661364422073
aF-0.943765344700175
aF-0.7942233221416464
aF-0.7429740496388202
aF-0.5497598711018483
aF-0.12069736172299465
aF-0.06381152666592672
aF0.08948403089167575
aF0.2691527298697691
aF0.47427850518368736
aF1.15311370291584
aF1.2878605110997738
aF1.5177971351814532
aF1.670555975136291
aF1.9692575670261603
asS'smoke'
p17
(lp18
F1.2336068175469652
aF1.1486769161667953
aF1.3185367189271349
aF1.4034666203073043
aF1.828116127208153
aF0.04458819822458913
aF-0.040341703155580666
aF0.21444800098492872
aF0.5541676065056076
aF0.7240274092659467
aF-0.507456160746514
aF-0.5499211114365989
aF-0.4649912100564293
aF-0.29513140729608967
aF-0.21020150591591988
aF-1.399220125238296
aF-1.484150026618466
aF-1.3142902238581264
aF-1.144430421097787
aF-1.0595005197176173
as.