(lp0
F4.4408920985006264e-17
aF4.4408920985006264e-17
aF9.349246523159212e-17
aF3.3306690738754695e-17
aF-6.661338147750939e-17
aF5.551115123125783e-18
aF2.7755575615628915e-18
aF5.551115123125783e-17
aF-5.551115123125783e-17
a.